target datalayout = "e-m:e-p270:32:32-p271:32:32-p272:64:64-i64:64-i128:128-f80:128-n8:16:32:64-S128"
target triple = "x86_64-unknown-linux-gnu"

%"class.icu_75::PossibleWord" = type { i32, i32, i32, i32, i32, [20 x i32], [20 x i32] }

; Function Attrs: mustprogress uwtable
define noundef signext i8 @_ZN6icu_7512PossibleWord6backUpEP5UText(ptr noundef nonnull align 4 dereferenceable(180) %this, ptr noundef %text) #0 align 2 {
entry:
  %retval = alloca i8, align 1
  %this.addr = alloca ptr, align 8
  %text.addr = alloca ptr, align 8
  store ptr %this, ptr %this.addr, align 8
  store ptr %text, ptr %text.addr, align 8
  %this1 = load ptr, ptr %this.addr, align 8
  %current = getelementptr inbounds %"class.icu_75::PossibleWord", ptr %this1, i32 0, i32 4
  %0 = load i32, ptr %current, align 4
  %cmp = icmp sgt i32 %0, 0
  br i1 %cmp, label %if.then, label %if.end

if.then:                                          ; preds = %entry
  %1 = load ptr, ptr %text.addr, align 8
  %offset = getelementptr inbounds %"class.icu_75::PossibleWord", ptr %this1, i32 0, i32 2
  %2 = load i32, ptr %offset, align 4
  %cuLengths = getelementptr inbounds %"class.icu_75::PossibleWord", ptr %this1, i32 0, i32 5
  %current2 = getelementptr inbounds %"class.icu_75::PossibleWord", ptr %this1, i32 0, i32 4
  %3 = load i32, ptr %current2, align 4
  %dec = add nsw i32 %3, -1
  store i32 %dec, ptr %current2, align 4
  %idxprom = sext i32 %dec to i64
  %arrayidx = getelementptr inbounds [20 x i32], ptr %cuLengths, i64 0, i64 %idxprom
  %4 = load i32, ptr %arrayidx, align 4
  %add = add nsw i32 %2, %4
  %conv = sext i32 %add to i64
  call void @utext_setNativeIndex_75(ptr noundef %1, i64 noundef %conv)
  store i8 1, ptr %retval, align 1
  br label %return

if.end:                                           ; preds = %entry
  store i8 0, ptr %retval, align 1
  br label %return

return:                                           ; preds = %if.end, %if.then
  %5 = load i8, ptr %retval, align 1
  ret i8 %5
}