; Function Attrs: mustprogress uwtable
define noundef signext i8 @_ZN6icu_7512PossibleWord6backUpEP5UText(ptr nocapture noundef nonnull align 4 dereferenceable(180) %this, ptr noundef %text) local_unnamed_addr #0 align 2 {
entry:
  %current = getelementptr inbounds i8, ptr %this, i64 16
  %0 = load i32, ptr %current, align 4
  %cmp = icmp sgt i32 %0, 0
  br i1 %cmp, label %if.then, label %return

if.then:                                          ; preds = %entry
  %offset = getelementptr inbounds i8, ptr %this, i64 8
  %1 = load i32, ptr %offset, align 4
  %cuLengths = getelementptr inbounds i8, ptr %this, i64 20
  %dec = add nsw i32 %0, -1
  store i32 %dec, ptr %current, align 4
  %idxprom = zext nneg i32 %dec to i64
  %arrayidx = getelementptr inbounds [20 x i32], ptr %cuLengths, i64 0, i64 %idxprom
  %2 = load i32, ptr %arrayidx, align 4
  %add = add nsw i32 %2, %1
  %conv = sext i32 %add to i64
  tail call void @utext_setNativeIndex_75(ptr noundef %text, i64 noundef %conv)
  br label %return

return:                                           ; preds = %entry, %if.then
  %retval.0 = phi i8 [ 1, %if.then ], [ 0, %entry ]
  ret i8 %retval.0
}